target datalayout = "e-m:e-p270:32:32-p271:32:32-p272:64:64-i64:64-i128:128-f80:128-n8:16:32:64-S128"
target triple = "x86_64-pc-linux-gnu"

%struct.persist_msg_t = type { ptr, ptr, i16 }
%struct.dbd_list_msg_t = type { ptr, i32 }
%struct.dbd_modify_msg_t = type { ptr, ptr }
%struct.persist_rc_msg_t = type { ptr, i16, i32, i16 }

@.str.6 = private unnamed_addr constant [29 x i8] c"DBD_MODIFY_USERS failure: %m\00", align 1
@.str.7 = private unnamed_addr constant [3 x i8] c"%s\00", align 1
@.str.8 = private unnamed_addr constant [35 x i8] c"response type not DBD_GOT_LIST: %u\00", align 1

; Function Attrs: nounwind uwtable
define dso_local ptr @acct_storage_p_modify_users(ptr noundef %0, i32 noundef %1, ptr noundef %2, ptr noundef %3) #0 {
  %5 = alloca ptr, align 8
  %6 = alloca i32, align 4
  %7 = alloca ptr, align 8
  %8 = alloca ptr, align 8
  %9 = alloca %struct.persist_msg_t, align 8
  %10 = alloca %struct.persist_msg_t, align 8
  %11 = alloca %struct.dbd_modify_msg_t, align 8
  %12 = alloca ptr, align 8
  %13 = alloca ptr, align 8
  %14 = alloca i32, align 4
  %15 = alloca ptr, align 8
  store ptr %0, ptr %5, align 8
  store i32 %1, ptr %6, align 4
  store ptr %2, ptr %7, align 8
  store ptr %3, ptr %8, align 8
  call void @llvm.lifetime.start.p0(i64 24, ptr %9) #9
  call void @llvm.memset.p0.i64(ptr align 8 %9, i8 0, i64 24, i1 false)
  call void @llvm.lifetime.start.p0(i64 24, ptr %10) #9
  call void @llvm.memset.p0.i64(ptr align 8 %10, i8 0, i64 24, i1 false)
  call void @llvm.lifetime.start.p0(i64 16, ptr %11) #9
  call void @llvm.lifetime.start.p0(i64 8, ptr %12) #9
  call void @llvm.lifetime.start.p0(i64 8, ptr %13) #9
  store ptr null, ptr %13, align 8
  call void @llvm.lifetime.start.p0(i64 4, ptr %14) #9
  call void @llvm.memset.p0.i64(ptr align 8 %11, i8 0, i64 16, i1 false)
  %16 = load ptr, ptr %7, align 8
  %17 = getelementptr inbounds nuw %struct.dbd_modify_msg_t, ptr %11, i32 0, i32 0
  store ptr %16, ptr %17, align 8
  %18 = load ptr, ptr %8, align 8
  %19 = getelementptr inbounds nuw %struct.dbd_modify_msg_t, ptr %11, i32 0, i32 1
  store ptr %18, ptr %19, align 8
  %20 = getelementptr inbounds nuw %struct.persist_msg_t, ptr %9, i32 0, i32 2
  store i16 1431, ptr %20, align 8
  %21 = load ptr, ptr %5, align 8
  %22 = getelementptr inbounds nuw %struct.persist_msg_t, ptr %9, i32 0, i32 0
  store ptr %21, ptr %22, align 8
  %23 = getelementptr inbounds nuw %struct.persist_msg_t, ptr %9, i32 0, i32 1
  store ptr %11, ptr %23, align 8
  %24 = call i32 @dbd_conn_send_recv(i16 noundef zeroext 11008, ptr noundef %9, ptr noundef %10)
  store i32 %24, ptr %14, align 4
  %25 = load i32, ptr %14, align 4
  %26 = icmp ne i32 %25, 0
  br i1 %26, label %27, label %29

27:                                               ; preds = %4
  %28 = call i32 (ptr, ...) @slurm_error(ptr noundef @.str.6)
  br label %83

29:                                               ; preds = %4
  %30 = getelementptr inbounds nuw %struct.persist_msg_t, ptr %10, i32 0, i32 2
  %31 = load i16, ptr %30, align 8
  %32 = zext i16 %31 to i32
  %33 = icmp eq i32 %32, 1433
  br i1 %33, label %34, label %62

34:                                               ; preds = %29
  call void @llvm.lifetime.start.p0(i64 8, ptr %15) #9
  %35 = getelementptr inbounds nuw %struct.persist_msg_t, ptr %10, i32 0, i32 1
  %36 = load ptr, ptr %35, align 8
  store ptr %36, ptr %15, align 8
  %37 = load ptr, ptr %15, align 8
  %38 = getelementptr inbounds nuw %struct.persist_rc_msg_t, ptr %37, i32 0, i32 2
  %39 = load i32, ptr %38, align 4
  %40 = icmp eq i32 %39, 0
  br i1 %40, label %41, label %46

41:                                               ; preds = %34
  %42 = load ptr, ptr %15, align 8
  %43 = getelementptr inbounds nuw %struct.persist_rc_msg_t, ptr %42, i32 0, i32 0
  %44 = load ptr, ptr %43, align 8
  call void (i32, ptr, ...) @slurm_log_var(i32 noundef 3, ptr noundef @.str.7, ptr noundef %44)
  %45 = call ptr @slurm_list_create(ptr noundef null)
  store ptr %45, ptr %13, align 8
  br label %60

46:                                               ; preds = %34
  %47 = load ptr, ptr %15, align 8
  %48 = getelementptr inbounds nuw %struct.persist_rc_msg_t, ptr %47, i32 0, i32 2
  %49 = load i32, ptr %48, align 4
  %50 = call ptr @__errno_location() #10
  store i32 %49, ptr %50, align 4
  %51 = call ptr @__errno_location() #10
  %52 = load i32, ptr %51, align 4
  %53 = icmp ne i32 %52, 1900
  br i1 %53, label %54, label %59

54:                                               ; preds = %46
  %55 = load ptr, ptr %15, align 8
  %56 = getelementptr inbounds nuw %struct.persist_rc_msg_t, ptr %55, i32 0, i32 0
  %57 = load ptr, ptr %56, align 8
  %58 = call i32 (ptr, ...) @slurm_error(ptr noundef @.str.7, ptr noundef %57)
  br label %59

59:                                               ; preds = %54, %46
  br label %60

60:                                               ; preds = %59, %41
  %61 = load ptr, ptr %15, align 8
  call void @slurm_persist_free_rc_msg(ptr noundef %61)
  call void @llvm.lifetime.end.p0(i64 8, ptr %15) #9
  br label %82

62:                                               ; preds = %29
  %63 = getelementptr inbounds nuw %struct.persist_msg_t, ptr %10, i32 0, i32 2
  %64 = load i16, ptr %63, align 8
  %65 = zext i16 %64 to i32
  %66 = icmp ne i32 %65, 1422
  br i1 %66, label %67, label %72

67:                                               ; preds = %62
  %68 = getelementptr inbounds nuw %struct.persist_msg_t, ptr %10, i32 0, i32 2
  %69 = load i16, ptr %68, align 8
  %70 = zext i16 %69 to i32
  %71 = call i32 (ptr, ...) @slurm_error(ptr noundef @.str.8, i32 noundef %70)
  br label %81

72:                                               ; preds = %62
  %73 = getelementptr inbounds nuw %struct.persist_msg_t, ptr %10, i32 0, i32 1
  %74 = load ptr, ptr %73, align 8
  store ptr %74, ptr %12, align 8
  %75 = load ptr, ptr %12, align 8
  %76 = getelementptr inbounds nuw %struct.dbd_list_msg_t, ptr %75, i32 0, i32 0
  %77 = load ptr, ptr %76, align 8
  store ptr %77, ptr %13, align 8
  %78 = load ptr, ptr %12, align 8
  %79 = getelementptr inbounds nuw %struct.dbd_list_msg_t, ptr %78, i32 0, i32 0
  store ptr null, ptr %79, align 8
  %80 = load ptr, ptr %12, align 8
  call void @slurm_slurmdbd_free_list_msg(ptr noundef %80)
  br label %81

81:                                               ; preds = %72, %67
  br label %82

82:                                               ; preds = %81, %60
  br label %83

83:                                               ; preds = %82, %27
  %84 = load ptr, ptr %13, align 8
  call void @llvm.lifetime.end.p0(i64 4, ptr %14) #9
  call void @llvm.lifetime.end.p0(i64 8, ptr %13) #9
  call void @llvm.lifetime.end.p0(i64 8, ptr %12) #9
  call void @llvm.lifetime.end.p0(i64 16, ptr %11) #9
  call void @llvm.lifetime.end.p0(i64 24, ptr %10) #9
  call void @llvm.lifetime.end.p0(i64 24, ptr %9) #9
  ret ptr %84
}